; Function Attrs: mustprogress nofree norecurse nosync nounwind memory(readwrite, inaccessiblemem: none) uwtable
define hidden void @_ZN19OpenColorIO_v2_5dev12MatrixOpData5scaleEdd(ptr noundef nonnull align 8 captures(none) dereferenceable(260) %0, double noundef %1, double noundef %2) local_unnamed_addr #23 align 2 {
  %4 = fmul double %1, %2
  %5 = fcmp une double %4, 1.000000e+00
  br i1 %5, label %6, label %_ZN19OpenColorIO_v2_5dev6ArrayTIdE5scaleEd.exit

6:                                                ; preds = %3
  %7 = getelementptr inbounds nuw i8, ptr %0, i64 192
  %8 = getelementptr inbounds nuw i8, ptr %0, i64 200
  %9 = load ptr, ptr %8, align 8, !tbaa !25
  %10 = load ptr, ptr %7, align 8, !tbaa !9
  %.not.i = icmp eq ptr %9, %10
  br i1 %.not.i, label %_ZN19OpenColorIO_v2_5dev6ArrayTIdE5scaleEd.exit, label %.lr.ph.preheader.i

.lr.ph.preheader.i:                               ; preds = %6
  %11 = ptrtoint ptr %9 to i64
  %12 = ptrtoint ptr %10 to i64
  %13 = sub i64 %11, %12
  %14 = ashr exact i64 %13, 3
  %umax.i = tail call i64 @llvm.umax.i64(i64 %14, i64 1)
  br label %.lr.ph.i

.lr.ph.i:                                         ; preds = %.lr.ph.i, %.lr.ph.preheader.i
  %.07.i = phi i64 [ %18, %.lr.ph.i ], [ 0, %.lr.ph.preheader.i ]
  %15 = getelementptr inbounds nuw double, ptr %10, i64 %.07.i
  %16 = load double, ptr %15, align 8, !tbaa !7
  %17 = fmul double %4, %16
  store double %17, ptr %15, align 8, !tbaa !7
  %18 = add nuw i64 %.07.i, 1
  %exitcond.not.i = icmp eq i64 %18, %umax.i
  br i1 %exitcond.not.i, label %_ZN19OpenColorIO_v2_5dev6ArrayTIdE5scaleEd.exit, label %.lr.ph.i, !llvm.loop !156

_ZN19OpenColorIO_v2_5dev6ArrayTIdE5scaleEd.exit:  ; preds = %.lr.ph.i, %3, %6
  %19 = getelementptr inbounds nuw i8, ptr %0, i64 216
  br label %20

20:                                               ; preds = %20, %_ZN19OpenColorIO_v2_5dev6ArrayTIdE5scaleEd.exit
  %indvars.iv.i = phi i64 [ 0, %_ZN19OpenColorIO_v2_5dev6ArrayTIdE5scaleEd.exit ], [ %indvars.iv.next.i, %20 ]
  %21 = getelementptr inbounds nuw [4 x double], ptr %19, i64 0, i64 %indvars.iv.i
  %22 = load double, ptr %21, align 8, !tbaa !7
  %23 = fmul double %2, %22
  store double %23, ptr %21, align 8, !tbaa !7
  %indvars.iv.next.i = add nuw nsw i64 %indvars.iv.i, 1
  %exitcond.not.i5 = icmp eq i64 %indvars.iv.next.i, 4
  br i1 %exitcond.not.i5, label %_ZN19OpenColorIO_v2_5dev12MatrixOpData7Offsets5scaleEd.exit, label %20, !llvm.loop !13

_ZN19OpenColorIO_v2_5dev12MatrixOpData7Offsets5scaleEd.exit: ; preds = %20
  ret void
}